; Function Attrs: mustprogress nounwind uwtable
define void @_Z23llama_grammar_free_implP13llama_grammar(ptr noundef %0) local_unnamed_addr #10 {
  %2 = icmp eq ptr %0, null
  br i1 %2, label %4, label %3

3:                                                ; preds = %1
  tail call void @_ZN13llama_grammarD2Ev(ptr noundef nonnull align 8 dereferenceable(152) %0) #28
  tail call void @_ZdlPvm(ptr noundef nonnull %0, i64 noundef 152) #30
  br label %4

4:                                                ; preds = %1, %3
  ret void
}